target datalayout = "e-m:e-p270:32:32-p271:32:32-p272:64:64-i64:64-i128:128-f80:128-n8:16:32:64-S128"
target triple = "x86_64-pc-linux-gnu"

%struct.buffer_s = type { ptr, i64 }
%struct.Range = type { ptr, i64 }
%struct.RoundBuff_t = type { ptr, i64, i64 }
%struct.ZSTD_customMem = type { ptr, ptr, ptr }
%struct.ZSTDMT_CCtx_s = type { ptr, ptr, ptr, ptr, ptr, %struct.ZSTD_CCtx_params_s, i64, i64, i32, %struct.InBuff_t, %struct.RoundBuff_t, %struct.SerialState, %struct.RSyncState_t, i32, i32, i32, i32, i32, i64, i64, i64, %struct.ZSTD_customMem, ptr, ptr, i8 }
%struct.ZSTD_CCtx_params_s = type { i32, %struct.ZSTD_compressionParameters, %struct.ZSTD_frameParameters, i32, i32, i64, i32, i32, i32, i32, i64, i32, i32, %struct.ldmParams_t, i32, i32, i32, i32, i32, i32, i32, i64, i32, i32, %struct.ZSTD_customMem, i32, i32, ptr, ptr, i32 }
%struct.ZSTD_compressionParameters = type { i32, i32, i32, i32, i32, i32, i32 }
%struct.ZSTD_frameParameters = type { i32, i32, i32 }
%struct.ldmParams_t = type { i32, i32, i32, i32, i32, i32 }
%struct.InBuff_t = type { %struct.Range, %struct.buffer_s, i64 }
%struct.SerialState = type { %union.pthread_mutex_t, %union.pthread_cond_t, %struct.ZSTD_CCtx_params_s, %struct.ldmState_t, %struct.XXH64_state_s, i32, %union.pthread_mutex_t, %union.pthread_cond_t, %struct.ZSTD_window_t }
%struct.ldmState_t = type { %struct.ZSTD_window_t, ptr, i32, ptr, [64 x i64], [64 x %struct.ldmMatchCandidate_t] }
%struct.ldmMatchCandidate_t = type { ptr, i32, i32, ptr }
%struct.XXH64_state_s = type { i64, [4 x i64], [4 x i64], i32, i32, i64 }
%union.pthread_mutex_t = type { %struct.__pthread_mutex_s }
%struct.__pthread_mutex_s = type { i32, i32, i32, i32, i32, i16, i16, %struct.__pthread_internal_list }
%struct.__pthread_internal_list = type { ptr, ptr }
%union.pthread_cond_t = type { %struct.__pthread_cond_s }
%struct.__pthread_cond_s = type { %union.__atomic_wide_counter, %union.__atomic_wide_counter, [2 x i32], [2 x i32], i32, i32, [2 x i32] }
%union.__atomic_wide_counter = type { i64 }
%struct.ZSTD_window_t = type { ptr, ptr, ptr, i32, i32, i32 }
%struct.RSyncState_t = type { i64, i64, i64 }
%struct.ZSTDMT_jobDescription = type { i64, i64, %union.pthread_mutex_t, %union.pthread_cond_t, ptr, ptr, ptr, ptr, %struct.buffer_s, %struct.Range, %struct.Range, i32, i32, i32, %struct.ZSTD_CCtx_params_s, ptr, i64, i64, i32 }

; Function Attrs: inlinehint nounwind uwtable
define internal void @ZSTD_customFree(ptr noundef %0, ptr noundef byval(%struct.ZSTD_customMem) align 8 %1) #1 {
  %3 = alloca ptr, align 8
  store ptr %0, ptr %3, align 8, !tbaa !16
  %4 = load ptr, ptr %3, align 8, !tbaa !16
  %5 = icmp ne ptr %4, null
  br i1 %5, label %6, label %19

6:                                                ; preds = %2
  %7 = getelementptr inbounds nuw %struct.ZSTD_customMem, ptr %1, i32 0, i32 1
  %8 = load ptr, ptr %7, align 8, !tbaa !12
  %9 = icmp ne ptr %8, null
  br i1 %9, label %10, label %16

10:                                               ; preds = %6
  %11 = getelementptr inbounds nuw %struct.ZSTD_customMem, ptr %1, i32 0, i32 1
  %12 = load ptr, ptr %11, align 8, !tbaa !12
  %13 = getelementptr inbounds nuw %struct.ZSTD_customMem, ptr %1, i32 0, i32 2
  %14 = load ptr, ptr %13, align 8, !tbaa !72
  %15 = load ptr, ptr %3, align 8, !tbaa !16
  call void %12(ptr noundef %14, ptr noundef %15)
  br label %18

16:                                               ; preds = %6
  %17 = load ptr, ptr %3, align 8, !tbaa !16
  call void @free(ptr noundef %17) #11
  br label %18

18:                                               ; preds = %16, %10
  br label %19

19:                                               ; preds = %18, %2
  ret void
}

; Function Attrs: nounwind uwtable
define internal void @ZSTDMT_serialState_free(ptr noundef %0) #0 {
  %2 = alloca ptr, align 8
  %3 = alloca %struct.ZSTD_customMem, align 8
  store ptr %0, ptr %2, align 8, !tbaa !16
  call void @llvm.lifetime.start.p0(i64 24, ptr %3) #11
  %4 = load ptr, ptr %2, align 8, !tbaa !16
  %5 = getelementptr inbounds nuw %struct.SerialState, ptr %4, i32 0, i32 2
  %6 = getelementptr inbounds nuw %struct.ZSTD_CCtx_params_s, ptr %5, i32 0, i32 24
  call void @llvm.memcpy.p0.p0.i64(ptr align 8 %3, ptr align 8 %6, i64 24, i1 false), !tbaa.struct !15
  %7 = load ptr, ptr %2, align 8, !tbaa !16
  %8 = getelementptr inbounds nuw %struct.SerialState, ptr %7, i32 0, i32 0
  %9 = call i32 @pthread_mutex_destroy(ptr noundef %8) #11
  %10 = load ptr, ptr %2, align 8, !tbaa !16
  %11 = getelementptr inbounds nuw %struct.SerialState, ptr %10, i32 0, i32 1
  %12 = call i32 @pthread_cond_destroy(ptr noundef %11) #11
  %13 = load ptr, ptr %2, align 8, !tbaa !16
  %14 = getelementptr inbounds nuw %struct.SerialState, ptr %13, i32 0, i32 6
  %15 = call i32 @pthread_mutex_destroy(ptr noundef %14) #11
  %16 = load ptr, ptr %2, align 8, !tbaa !16
  %17 = getelementptr inbounds nuw %struct.SerialState, ptr %16, i32 0, i32 7
  %18 = call i32 @pthread_cond_destroy(ptr noundef %17) #11
  %19 = load ptr, ptr %2, align 8, !tbaa !16
  %20 = getelementptr inbounds nuw %struct.SerialState, ptr %19, i32 0, i32 3
  %21 = getelementptr inbounds nuw %struct.ldmState_t, ptr %20, i32 0, i32 1
  %22 = load ptr, ptr %21, align 8, !tbaa !70
  call void @ZSTD_customFree(ptr noundef %22, ptr noundef byval(%struct.ZSTD_customMem) align 8 %3)
  %23 = load ptr, ptr %2, align 8, !tbaa !16
  %24 = getelementptr inbounds nuw %struct.SerialState, ptr %23, i32 0, i32 3
  %25 = getelementptr inbounds nuw %struct.ldmState_t, ptr %24, i32 0, i32 3
  %26 = load ptr, ptr %25, align 8, !tbaa !71
  call void @ZSTD_customFree(ptr noundef %26, ptr noundef byval(%struct.ZSTD_customMem) align 8 %3)
  call void @llvm.lifetime.end.p0(i64 24, ptr %3) #11
  ret void
}

; Function Attrs: nounwind uwtable
define internal void @ZSTDMT_freeSeqPool(ptr noundef %0) #0 {
  %2 = alloca ptr, align 8
  store ptr %0, ptr %2, align 8, !tbaa !56
  %3 = load ptr, ptr %2, align 8, !tbaa !56
  call void @ZSTDMT_freeBufferPool(ptr noundef %3)
  ret void
}

; Function Attrs: nounwind uwtable
define internal void @ZSTDMT_freeJobsTable(ptr noundef %0, i32 noundef %1, ptr noundef byval(%struct.ZSTD_customMem) align 8 %2) #0 {
  %4 = alloca ptr, align 8
  %5 = alloca i32, align 4
  %6 = alloca i32, align 4
  %7 = alloca i32, align 4
  store ptr %0, ptr %4, align 8, !tbaa !16
  store i32 %1, ptr %5, align 4, !tbaa !3
  call void @llvm.lifetime.start.p0(i64 4, ptr %6) #11
  %8 = load ptr, ptr %4, align 8, !tbaa !16
  %9 = icmp eq ptr %8, null
  br i1 %9, label %10, label %11

10:                                               ; preds = %3
  store i32 1, ptr %7, align 4
  br label %34

11:                                               ; preds = %3
  store i32 0, ptr %6, align 4, !tbaa !3
  br label %12

12:                                               ; preds = %29, %11
  %13 = load i32, ptr %6, align 4, !tbaa !3
  %14 = load i32, ptr %5, align 4, !tbaa !3
  %15 = icmp ult i32 %13, %14
  br i1 %15, label %16, label %32

16:                                               ; preds = %12
  %17 = load ptr, ptr %4, align 8, !tbaa !16
  %18 = load i32, ptr %6, align 4, !tbaa !3
  %19 = zext i32 %18 to i64
  %20 = getelementptr inbounds nuw %struct.ZSTDMT_jobDescription, ptr %17, i64 %19
  %21 = getelementptr inbounds nuw %struct.ZSTDMT_jobDescription, ptr %20, i32 0, i32 2
  %22 = call i32 @pthread_mutex_destroy(ptr noundef %21) #11
  %23 = load ptr, ptr %4, align 8, !tbaa !16
  %24 = load i32, ptr %6, align 4, !tbaa !3
  %25 = zext i32 %24 to i64
  %26 = getelementptr inbounds nuw %struct.ZSTDMT_jobDescription, ptr %23, i64 %25
  %27 = getelementptr inbounds nuw %struct.ZSTDMT_jobDescription, ptr %26, i32 0, i32 3
  %28 = call i32 @pthread_cond_destroy(ptr noundef %27) #11
  br label %29

29:                                               ; preds = %16
  %30 = load i32, ptr %6, align 4, !tbaa !3
  %31 = add i32 %30, 1
  store i32 %31, ptr %6, align 4, !tbaa !3
  br label %12, !llvm.loop !55

32:                                               ; preds = %12
  %33 = load ptr, ptr %4, align 8, !tbaa !16
  call void @ZSTD_customFree(ptr noundef %33, ptr noundef byval(%struct.ZSTD_customMem) align 8 %2)
  store i32 0, ptr %7, align 4
  br label %34

34:                                               ; preds = %32, %10
  call void @llvm.lifetime.end.p0(i64 4, ptr %6) #11
  %35 = load i32, ptr %7, align 4
  switch i32 %35, label %37 [
    i32 0, label %36
    i32 1, label %36
  ]

36:                                               ; preds = %34, %34
  ret void

37:                                               ; preds = %34
  unreachable
}

; Function Attrs: nounwind uwtable
define i64 @ZSTDMT_freeCCtx(ptr noundef %0) #0 {
  %2 = alloca i64, align 8
  %3 = alloca ptr, align 8
  store ptr %0, ptr %3, align 8, !tbaa !13
  %4 = load ptr, ptr %3, align 8, !tbaa !13
  %5 = icmp eq ptr %4, null
  br i1 %5, label %6, label %7

6:                                                ; preds = %1
  store i64 0, ptr %2, align 8
  br label %60

7:                                                ; preds = %1
  %8 = load ptr, ptr %3, align 8, !tbaa !13
  %9 = getelementptr inbounds nuw %struct.ZSTDMT_CCtx_s, ptr %8, i32 0, i32 24
  %10 = load i8, ptr %9, align 8
  %11 = and i8 %10, 1
  %12 = zext i8 %11 to i32
  %13 = icmp ne i32 %12, 0
  br i1 %13, label %18, label %14

14:                                               ; preds = %7
  %15 = load ptr, ptr %3, align 8, !tbaa !13
  %16 = getelementptr inbounds nuw %struct.ZSTDMT_CCtx_s, ptr %15, i32 0, i32 0
  %17 = load ptr, ptr %16, align 8, !tbaa !37
  call void @POOL_free(ptr noundef %17)
  br label %18

18:                                               ; preds = %14, %7
  %19 = load ptr, ptr %3, align 8, !tbaa !13
  call void @ZSTDMT_releaseAllJobResources(ptr noundef %19)
  %20 = load ptr, ptr %3, align 8, !tbaa !13
  %21 = getelementptr inbounds nuw %struct.ZSTDMT_CCtx_s, ptr %20, i32 0, i32 1
  %22 = load ptr, ptr %21, align 8, !tbaa !38
  %23 = load ptr, ptr %3, align 8, !tbaa !13
  %24 = getelementptr inbounds nuw %struct.ZSTDMT_CCtx_s, ptr %23, i32 0, i32 13
  %25 = load i32, ptr %24, align 8, !tbaa !39
  %26 = add i32 %25, 1
  %27 = load ptr, ptr %3, align 8, !tbaa !13
  %28 = getelementptr inbounds nuw %struct.ZSTDMT_CCtx_s, ptr %27, i32 0, i32 21
  call void @ZSTDMT_freeJobsTable(ptr noundef %22, i32 noundef %26, ptr noundef byval(%struct.ZSTD_customMem) align 8 %28)
  %29 = load ptr, ptr %3, align 8, !tbaa !13
  %30 = getelementptr inbounds nuw %struct.ZSTDMT_CCtx_s, ptr %29, i32 0, i32 2
  %31 = load ptr, ptr %30, align 8, !tbaa !40
  call void @ZSTDMT_freeBufferPool(ptr noundef %31)
  %32 = load ptr, ptr %3, align 8, !tbaa !13
  %33 = getelementptr inbounds nuw %struct.ZSTDMT_CCtx_s, ptr %32, i32 0, i32 3
  %34 = load ptr, ptr %33, align 8, !tbaa !41
  call void @ZSTDMT_freeCCtxPool(ptr noundef %34)
  %35 = load ptr, ptr %3, align 8, !tbaa !13
  %36 = getelementptr inbounds nuw %struct.ZSTDMT_CCtx_s, ptr %35, i32 0, i32 4
  %37 = load ptr, ptr %36, align 8, !tbaa !42
  call void @ZSTDMT_freeSeqPool(ptr noundef %37)
  %38 = load ptr, ptr %3, align 8, !tbaa !13
  %39 = getelementptr inbounds nuw %struct.ZSTDMT_CCtx_s, ptr %38, i32 0, i32 11
  call void @ZSTDMT_serialState_free(ptr noundef %39)
  %40 = load ptr, ptr %3, align 8, !tbaa !13
  %41 = getelementptr inbounds nuw %struct.ZSTDMT_CCtx_s, ptr %40, i32 0, i32 22
  %42 = load ptr, ptr %41, align 8, !tbaa !46
  %43 = call i64 @ZSTD_freeCDict(ptr noundef %42)
  %44 = load ptr, ptr %3, align 8, !tbaa !13
  %45 = getelementptr inbounds nuw %struct.ZSTDMT_CCtx_s, ptr %44, i32 0, i32 10
  %46 = getelementptr inbounds nuw %struct.RoundBuff_t, ptr %45, i32 0, i32 0
  %47 = load ptr, ptr %46, align 8, !tbaa !47
  %48 = icmp ne ptr %47, null
  br i1 %48, label %49, label %56

49:                                               ; preds = %18
  %50 = load ptr, ptr %3, align 8, !tbaa !13
  %51 = getelementptr inbounds nuw %struct.ZSTDMT_CCtx_s, ptr %50, i32 0, i32 10
  %52 = getelementptr inbounds nuw %struct.RoundBuff_t, ptr %51, i32 0, i32 0
  %53 = load ptr, ptr %52, align 8, !tbaa !47
  %54 = load ptr, ptr %3, align 8, !tbaa !13
  %55 = getelementptr inbounds nuw %struct.ZSTDMT_CCtx_s, ptr %54, i32 0, i32 21
  call void @ZSTD_customFree(ptr noundef %53, ptr noundef byval(%struct.ZSTD_customMem) align 8 %55)
  br label %56

56:                                               ; preds = %49, %18
  %57 = load ptr, ptr %3, align 8, !tbaa !13
  %58 = load ptr, ptr %3, align 8, !tbaa !13
  %59 = getelementptr inbounds nuw %struct.ZSTDMT_CCtx_s, ptr %58, i32 0, i32 21
  call void @ZSTD_customFree(ptr noundef %57, ptr noundef byval(%struct.ZSTD_customMem) align 8 %59)
  store i64 0, ptr %2, align 8
  br label %60

60:                                               ; preds = %56, %6
  %61 = load i64, ptr %2, align 8
  ret i64 %61
}