; Function Attrs: nounwind uwtable
define noundef i64 @ZSTDMT_freeCCtx(ptr noundef %0) local_unnamed_addr #0 {
  %2 = icmp eq ptr %0, null
  br i1 %2, label %ZSTD_customFree.exit28, label %3

3:                                                ; preds = %1
  %4 = getelementptr inbounds nuw i8, ptr %0, i64 3112
  %5 = load i8, ptr %4, align 8
  %6 = and i8 %5, 1
  %.not = icmp eq i8 %6, 0
  br i1 %.not, label %7, label %9

7:                                                ; preds = %3
  %8 = load ptr, ptr %0, align 8, !tbaa !34
  tail call void @POOL_free(ptr noundef %8) #14
  br label %9

9:                                                ; preds = %7, %3
  tail call fastcc void @ZSTDMT_releaseAllJobResources(ptr noundef nonnull %0)
  %10 = getelementptr inbounds nuw i8, ptr %0, i64 8
  %11 = load ptr, ptr %10, align 8, !tbaa !35
  %12 = getelementptr inbounds nuw i8, ptr %0, i64 3024
  %13 = load i32, ptr %12, align 8, !tbaa !36
  %14 = add i32 %13, 1
  %15 = getelementptr i8, ptr %0, i64 3080
  %.val22 = load ptr, ptr %15, align 8
  %16 = getelementptr i8, ptr %0, i64 3088
  %.val23 = load ptr, ptr %16, align 8
  %17 = icmp eq ptr %11, null
  br i1 %17, label %ZSTDMT_freeJobsTable.exit, label %.preheader.i

.preheader.i:                                     ; preds = %9
  %.not.i = icmp eq i32 %14, 0
  br i1 %.not.i, label %._crit_edge.i, label %.lr.ph.preheader.i

.lr.ph.preheader.i:                               ; preds = %.preheader.i
  %wide.trip.count.i = zext i32 %14 to i64
  br label %.lr.ph.i

.lr.ph.i:                                         ; preds = %.lr.ph.i, %.lr.ph.preheader.i
  %indvars.iv.i = phi i64 [ 0, %.lr.ph.preheader.i ], [ %indvars.iv.next.i, %.lr.ph.i ]
  %18 = getelementptr inbounds nuw %struct.ZSTDMT_jobDescription, ptr %11, i64 %indvars.iv.i
  %19 = getelementptr inbounds nuw i8, ptr %18, i64 16
  %20 = tail call i32 @pthread_mutex_destroy(ptr noundef nonnull %19) #14
  %21 = getelementptr inbounds nuw i8, ptr %18, i64 56
  %22 = tail call i32 @pthread_cond_destroy(ptr noundef nonnull %21) #14
  %indvars.iv.next.i = add nuw nsw i64 %indvars.iv.i, 1
  %exitcond.not.i = icmp eq i64 %indvars.iv.next.i, %wide.trip.count.i
  br i1 %exitcond.not.i, label %._crit_edge.i, label %.lr.ph.i, !llvm.loop !43

._crit_edge.i:                                    ; preds = %.lr.ph.i, %.preheader.i
  %.not4.i.i = icmp eq ptr %.val22, null
  br i1 %.not4.i.i, label %24, label %23

23:                                               ; preds = %._crit_edge.i
  tail call void %.val22(ptr noundef %.val23, ptr noundef nonnull %11) #14
  br label %ZSTDMT_freeJobsTable.exit

24:                                               ; preds = %._crit_edge.i
  tail call void @free(ptr noundef nonnull %11) #14
  br label %ZSTDMT_freeJobsTable.exit

ZSTDMT_freeJobsTable.exit:                        ; preds = %9, %23, %24
  %25 = getelementptr inbounds nuw i8, ptr %0, i64 16
  %26 = load ptr, ptr %25, align 8, !tbaa !37
  tail call fastcc void @ZSTDMT_freeBufferPool(ptr noundef %26)
  %27 = getelementptr inbounds nuw i8, ptr %0, i64 24
  %28 = load ptr, ptr %27, align 8, !tbaa !38
  tail call fastcc void @ZSTDMT_freeCCtxPool(ptr noundef %28)
  %29 = getelementptr inbounds nuw i8, ptr %0, i64 32
  %30 = load ptr, ptr %29, align 8, !tbaa !42
  tail call fastcc void @ZSTDMT_freeBufferPool(ptr noundef %30)
  %31 = getelementptr inbounds nuw i8, ptr %0, i64 352
  %.sroa.3.0..sroa_idx.i = getelementptr inbounds nuw i8, ptr %0, i64 616
  %.sroa.3.0.copyload.i = load ptr, ptr %.sroa.3.0..sroa_idx.i, align 8, !tbaa !12
  %.sroa.5.0..sroa_idx.i = getelementptr inbounds nuw i8, ptr %0, i64 624
  %.sroa.5.0.copyload.i = load ptr, ptr %.sroa.5.0..sroa_idx.i, align 8, !tbaa !12
  %32 = tail call i32 @pthread_mutex_destroy(ptr noundef nonnull %31) #14
  %33 = getelementptr inbounds nuw i8, ptr %0, i64 392
  %34 = tail call i32 @pthread_cond_destroy(ptr noundef nonnull %33) #14
  %35 = getelementptr inbounds nuw i8, ptr %0, i64 2872
  %36 = tail call i32 @pthread_mutex_destroy(ptr noundef nonnull %35) #14
  %37 = getelementptr inbounds nuw i8, ptr %0, i64 2912
  %38 = tail call i32 @pthread_cond_destroy(ptr noundef nonnull %37) #14
  %39 = getelementptr inbounds nuw i8, ptr %0, i64 704
  %40 = load ptr, ptr %39, align 8, !tbaa !45
  %.not.i.i = icmp eq ptr %40, null
  br i1 %.not.i.i, label %ZSTD_customFree.exit.i, label %41

41:                                               ; preds = %ZSTDMT_freeJobsTable.exit
  %.not4.i.i24 = icmp eq ptr %.sroa.3.0.copyload.i, null
  br i1 %.not4.i.i24, label %ZSTD_customFree.exit.thread.i, label %42

42:                                               ; preds = %41
  tail call void %.sroa.3.0.copyload.i(ptr noundef %.sroa.5.0.copyload.i, ptr noundef nonnull %40) #14
  br label %ZSTD_customFree.exit.i

ZSTD_customFree.exit.i:                           ; preds = %42, %ZSTDMT_freeJobsTable.exit
  %43 = getelementptr inbounds nuw i8, ptr %0, i64 720
  %44 = load ptr, ptr %43, align 8, !tbaa !46
  %.not.i10.i = icmp eq ptr %44, null
  br i1 %.not.i10.i, label %ZSTDMT_serialState_free.exit, label %47

ZSTD_customFree.exit.thread.i:                    ; preds = %41
  tail call void @free(ptr noundef nonnull %40) #14
  %45 = getelementptr inbounds nuw i8, ptr %0, i64 720
  %46 = load ptr, ptr %45, align 8, !tbaa !46
  %.not.i1013.i = icmp eq ptr %46, null
  br i1 %.not.i1013.i, label %ZSTDMT_serialState_free.exit, label %.thread.i

47:                                               ; preds = %ZSTD_customFree.exit.i
  %.not4.i11.i = icmp eq ptr %.sroa.3.0.copyload.i, null
  br i1 %.not4.i11.i, label %.thread.i, label %48

48:                                               ; preds = %47
  tail call void %.sroa.3.0.copyload.i(ptr noundef %.sroa.5.0.copyload.i, ptr noundef nonnull %44) #14
  br label %ZSTDMT_serialState_free.exit

.thread.i:                                        ; preds = %47, %ZSTD_customFree.exit.thread.i
  %49 = phi ptr [ %44, %47 ], [ %46, %ZSTD_customFree.exit.thread.i ]
  tail call void @free(ptr noundef nonnull %49) #14
  br label %ZSTDMT_serialState_free.exit

ZSTDMT_serialState_free.exit:                     ; preds = %ZSTD_customFree.exit.i, %ZSTD_customFree.exit.thread.i, %48, %.thread.i
  %50 = getelementptr inbounds nuw i8, ptr %0, i64 3096
  %51 = load ptr, ptr %50, align 8, !tbaa !47
  %52 = tail call i64 @ZSTD_freeCDict(ptr noundef %51) #14
  %53 = getelementptr inbounds nuw i8, ptr %0, i64 328
  %54 = load ptr, ptr %53, align 8, !tbaa !48
  %.not18 = icmp eq ptr %54, null
  br i1 %.not18, label %58, label %55

55:                                               ; preds = %ZSTDMT_serialState_free.exit
  %.val = load ptr, ptr %15, align 8
  %.not4.i = icmp eq ptr %.val, null
  br i1 %.not4.i, label %57, label %56

56:                                               ; preds = %55
  %.val19 = load ptr, ptr %16, align 8
  tail call void %.val(ptr noundef %.val19, ptr noundef nonnull %54) #14
  br label %58

57:                                               ; preds = %55
  tail call void @free(ptr noundef nonnull %54) #14
  br label %58

58:                                               ; preds = %ZSTDMT_serialState_free.exit, %56, %57
  %.val20 = load ptr, ptr %15, align 8
  %.not4.i27 = icmp eq ptr %.val20, null
  br i1 %.not4.i27, label %60, label %59

59:                                               ; preds = %58
  %.val21 = load ptr, ptr %16, align 8
  tail call void %.val20(ptr noundef %.val21, ptr noundef nonnull %0) #14
  br label %ZSTD_customFree.exit28

60:                                               ; preds = %58
  tail call void @free(ptr noundef nonnull %0) #14
  br label %ZSTD_customFree.exit28

ZSTD_customFree.exit28:                           ; preds = %60, %59, %1
  ret i64 0
}